Certificate:
    Data:
        Version: 3 (0x2)
        Serial Number: 1 (0x1)
    Signature Algorithm: sha1WithRSAEncryption
        Issuer: C=EG, ST=CA, L=NC, O=codescalers.com, OU=codescalers.com, CN=codescalers.com/name=codescalers.com/emailAddress=mahmoud@codescalers.com
        Validity
            Not Before: Mar  6 13:13:29 2014 GMT
            Not After : Mar  3 13:13:29 2024 GMT
        Subject: C=EG, ST=CA, L=NC, O=codescalers.com, OU=codescalers.com, CN=codescalers.com/name=codescalers.com/emailAddress=mahmoud@codescalers.com
        Subject Public Key Info:
            Public Key Algorithm: rsaEncryption
                Public-Key: (2048 bit)
                Modulus:
                    00:a8:b3:f6:97:d4:43:58:85:b1:03:c4:ec:23:18:
                    50:b3:32:aa:f4:12:61:11:13:59:d5:32:b8:1f:31:
                    7a:96:b9:de:21:75:d6:63:e2:1a:db:49:ec:1e:95:
                    dd:7d:62:9f:c7:9d:00:f2:89:cd:6e:b0:72:0a:74:
                    24:c6:29:fd:44:e8:be:64:85:45:68:13:96:df:38:
                    2b:fa:1a:ff:68:e8:dd:d8:a5:33:c6:ff:9e:8f:0c:
                    ad:ab:16:15:0a:97:21:6a:f4:f9:e8:e9:cd:b7:c2:
                    e1:a8:12:be:d4:34:6f:7f:44:29:3f:3d:18:63:53:
                    20:78:c9:8d:23:68:30:55:3a:28:d7:b6:17:94:69:
                    39:b3:dd:2f:af:45:70:45:09:a6:c9:3e:14:e5:b2:
                    e3:35:09:df:17:eb:4f:87:b4:2f:e8:47:35:a6:42:
                    a3:85:ec:53:9f:c4:5e:9e:a3:d3:eb:dc:2a:87:2d:
                    be:e7:4f:48:9f:ea:71:f1:2d:d8:d6:03:e7:3f:3e:
                    13:d6:cc:9e:3c:54:4c:41:1c:ba:33:6d:e4:5c:4a:
                    24:d8:2c:da:37:f1:d7:e3:e2:90:5b:0a:2f:5f:22:
                    be:d3:ed:cb:8a:87:93:a7:90:ad:f2:11:15:6a:93:
                    7d:28:f1:5c:31:1f:31:4d:ec:29:07:d0:87:00:73:
                    24:17
                Exponent: 65537 (0x10001)
        X509v3 extensions:
            X509v3 Basic Constraints: 
                CA:FALSE
            Netscape Cert Type: 
                SSL Server
            Netscape Comment: 
                Easy-RSA Generated Server Certificate
            X509v3 Subject Key Identifier: 
                C8:28:AB:A2:3C:DC:65:84:41:DC:68:0C:6D:DB:0A:C4:E9:F4:50:77
            X509v3 Authority Key Identifier: 
                keyid:69:F6:20:B8:90:B3:1A:5D:76:8C:11:23:98:E7:56:0E:E9:02:38:C3
                DirName:/C=EG/ST=CA/L=NC/O=codescalers.com/OU=codescalers.com/CN=codescalers.com/name=codescalers.com/emailAddress=mahmoud@codescalers.com
                serial:81:F1:FB:A0:AF:C2:41:68

            X509v3 Extended Key Usage: 
                TLS Web Server Authentication
            X509v3 Key Usage: 
                Digital Signature, Key Encipherment
    Signature Algorithm: sha1WithRSAEncryption
         b1:52:12:5f:73:1f:6f:9c:3b:bd:f4:98:bc:53:88:f6:c5:54:
         6f:c5:45:af:58:de:20:11:c5:6b:c1:b4:e8:4f:a8:c2:05:51:
         67:a7:d1:16:5c:8f:c6:0c:68:7b:fb:95:60:1c:9f:e2:7c:fb:
         25:98:23:f1:1c:76:50:03:23:65:5b:f3:92:93:d5:d2:d7:21:
         c5:04:75:60:8b:46:ef:37:29:1e:77:51:26:8e:8e:67:99:2c:
         db:0c:4c:12:b6:ac:8c:dc:f0:77:ec:37:cf:ea:5a:de:8d:56:
         f0:5b:cc:33:35:0d:14:dc:8f:b9:b1:f7:1e:56:1d:22:27:53:
         7f:19:8e:75:a7:84:df:0f:a1:54:6b:e6:5e:7f:52:0c:17:04:
         85:2f:c5:dc:4d:6d:a0:c2:14:77:52:ed:ff:44:52:df:76:df:
         07:4d:e0:a6:6c:aa:4d:32:5c:83:4a:ac:f2:dd:e2:66:af:56:
         7b:7b:4e:9c:b0:19:61:3e:ff:4d:c1:ad:12:1f:1b:be:2a:55:
         8a:7e:c0:56:39:db:e5:5c:b4:4e:55:5a:ea:59:74:c7:01:6c:
         00:ee:c5:c2:6d:12:cd:7c:0b:c5:7b:10:44:c8:f1:80:c4:b3:
         93:c5:a6:59:1c:c1:35:4c:a2:81:6e:7e:ea:f9:82:50:09:66:
         8e:9c:b4:bc
-----BEGIN CERTIFICATE-----
MIIFdTCCBF2gAwIBAgIBATANBgkqhkiG9w0BAQUFADCBtzELMAkGA1UEBhMCRUcx
CzAJBgNVBAgTAkNBMQswCQYDVQQHEwJOQzEYMBYGA1UEChMPY29kZXNjYWxlcnMu
Y29tMRgwFgYDVQQLEw9jb2Rlc2NhbGVycy5jb20xGDAWBgNVBAMTD2NvZGVzY2Fs
ZXJzLmNvbTEYMBYGA1UEKRMPY29kZXNjYWxlcnMuY29tMSYwJAYJKoZIhvcNAQkB
FhdtYWhtb3VkQGNvZGVzY2FsZXJzLmNvbTAeFw0xNDAzMDYxMzEzMjlaFw0yNDAz
MDMxMzEzMjlaMIG3MQswCQYDVQQGEwJFRzELMAkGA1UECBMCQ0ExCzAJBgNVBAcT
Ak5DMRgwFgYDVQQKEw9jb2Rlc2NhbGVycy5jb20xGDAWBgNVBAsTD2NvZGVzY2Fs
ZXJzLmNvbTEYMBYGA1UEAxMPY29kZXNjYWxlcnMuY29tMRgwFgYDVQQpEw9jb2Rl
c2NhbGVycy5jb20xJjAkBgkqhkiG9w0BCQEWF21haG1vdWRAY29kZXNjYWxlcnMu
Y29tMIIBIjANBgkqhkiG9w0BAQEFAAOCAQ8AMIIBCgKCAQEAqLP2l9RDWIWxA8Ts
IxhQszKq9BJhERNZ1TK4HzF6lrneIXXWY+Ia20nsHpXdfWKfx50A8onNbrByCnQk
xin9ROi+ZIVFaBOW3zgr+hr/aOjd2KUzxv+ejwytqxYVCpchavT56OnNt8LhqBK+
1DRvf0QpPz0YY1MgeMmNI2gwVToo17YXlGk5s90vr0VwRQmmyT4U5bLjNQnfF+tP
h7Qv6Ec1pkKjhexTn8RenqPT69wqhy2+509In+px8S3Y1gPnPz4T1syePFRMQRy6
M23kXEok2CzaN/HX4+KQWwovXyK+0+3LioeTp5Ct8hEVapN9KPFcMR8xTewpB9CH
AHMkFwIDAQABo4IBiDCCAYQwCQYDVR0TBAIwADARBglghkgBhvhCAQEEBAMCBkAw
NAYJYIZIAYb4QgENBCcWJUVhc3ktUlNBIEdlbmVyYXRlZCBTZXJ2ZXIgQ2VydGlm
aWNhdGUwHQYDVR0OBBYEFMgoq6I83GWEQdxoDG3bCsTp9FB3MIHsBgNVHSMEgeQw
geGAFGn2ILiQsxpddowRI5jnVg7pAjjDoYG9pIG6MIG3MQswCQYDVQQGEwJFRzEL
MAkGA1UECBMCQ0ExCzAJBgNVBAcTAk5DMRgwFgYDVQQKEw9jb2Rlc2NhbGVycy5j
b20xGDAWBgNVBAsTD2NvZGVzY2FsZXJzLmNvbTEYMBYGA1UEAxMPY29kZXNjYWxl
cnMuY29tMRgwFgYDVQQpEw9jb2Rlc2NhbGVycy5jb20xJjAkBgkqhkiG9w0BCQEW
F21haG1vdWRAY29kZXNjYWxlcnMuY29tggkAgfH7oK/CQWgwEwYDVR0lBAwwCgYI
KwYBBQUHAwEwCwYDVR0PBAQDAgWgMA0GCSqGSIb3DQEBBQUAA4IBAQCxUhJfcx9v
nDu99Ji8U4j2xVRvxUWvWN4gEcVrwbToT6jCBVFnp9EWXI/GDGh7+5VgHJ/ifPsl
mCPxHHZQAyNlW/OSk9XS1yHFBHVgi0bvNyked1Emjo5nmSzbDEwStqyM3PB37DfP
6lrejVbwW8wzNQ0U3I+5sfceVh0iJ1N/GY51p4TfD6FUa+Zef1IMFwSFL8XcTW2g
whR3Uu3/RFLfdt8HTeCmbKpNMlyDSqzy3eJmr1Z7e06csBlhPv9Nwa0SHxu+KlWK
fsBWOdvlXLROVVrqWXTHAWwA7sXCbRLNfAvFexBEyPGAxLOTxaZZHME1TKKBbn7q
+YJQCWaOnLS8
-----END CERTIFICATE-----
